target datalayout = "e-m:e-p270:32:32-p271:32:32-p272:64:64-i64:64-i128:128-f80:128-n8:16:32:64-S128"
target triple = "x86_64-pc-linux-gnu"

%struct._psqlSettings = type { ptr, i32, ptr, i8, ptr, ptr, %struct.printQueryOpt, ptr, ptr, ptr, i8, i8, i32, i32, ptr, ptr, i8, [4 x ptr], i8, i32, ptr, i8, i32, ptr, ptr, i64, i64, i8, ptr, ptr, ptr, i8, i8, i8, i8, i8, i8, i8, i32, i32, i32, i32, i32, i32, i32, i32, ptr, ptr, ptr, i32, i8, i32 }
%struct.printQueryOpt = type { %struct.printTableOpt, ptr, ptr, ptr, i8, ptr, i32 }
%struct.printTableOpt = type { i32, i16, i32, i32, i16, i16, i32, i8, i8, i8, i8, i64, ptr, %struct.separator, %struct.separator, [2 x i8], i8, ptr, i32, i32, i32, i32, i32, i32 }
%struct.separator = type { ptr, i8 }
%struct.__jmp_buf_tag = type { [8 x i64], i32, %struct.__sigset_t }
%struct.__sigset_t = type { [16 x i64] }
%struct.PQExpBufferData = type { ptr, i64, i64 }
%struct.PromptInterruptContext = type { ptr, ptr, i8 }

@pset = external global %struct._psqlSettings, align 8
@.str.165 = private unnamed_addr constant [3 x i8] c"%s\00", align 1
@sigint_interrupt_jmp = external global [1 x %struct.__jmp_buf_tag], align 16
@sigint_interrupt_enabled = external global i32, align 4
@.str.253 = private unnamed_addr constant [20 x i8] c"SELECT CURRENT_USER\00", align 1
@.str.254 = private unnamed_addr constant [35 x i8] c"Enter new password for user \22%s\22: \00", align 1
@.str.255 = private unnamed_addr constant [17 x i8] c"Enter it again: \00", align 1
@.str.256 = private unnamed_addr constant [24 x i8] c"Passwords didn't match.\00", align 1

; Function Attrs: nounwind uwtable
define internal void @ignore_slash_options(ptr noundef %0) #0 {
  %2 = alloca ptr, align 8
  %3 = alloca ptr, align 8
  store ptr %0, ptr %2, align 8
  call void @llvm.lifetime.start.p0(i64 8, ptr %3) #10
  br label %4

4:                                                ; preds = %8, %1
  %5 = load ptr, ptr %2, align 8
  %6 = call ptr @psql_scan_slash_option(ptr noundef %5, i32 noundef 0, ptr noundef null, i1 noundef zeroext false)
  store ptr %6, ptr %3, align 8
  %7 = icmp ne ptr %6, null
  br i1 %7, label %8, label %10

8:                                                ; preds = %4
  %9 = load ptr, ptr %3, align 8
  call void @free(ptr noundef %9) #10
  br label %4, !llvm.loop !18

10:                                               ; preds = %4
  call void @llvm.lifetime.end.p0(i64 8, ptr %3) #10
  ret void
}

; Function Attrs: nounwind uwtable
define internal i32 @exec_command_password(ptr noundef %0, i1 noundef zeroext %1) #0 {
  %3 = alloca i32, align 4
  %4 = alloca ptr, align 8
  %5 = alloca i8, align 1
  %6 = alloca i8, align 1
  %7 = alloca ptr, align 8
  %8 = alloca ptr, align 8
  %9 = alloca ptr, align 8
  %10 = alloca %struct.PQExpBufferData, align 8
  %11 = alloca %struct.PromptInterruptContext, align 8
  %12 = alloca ptr, align 8
  %13 = alloca i32, align 4
  %14 = alloca ptr, align 8
  store ptr %0, ptr %4, align 8
  %15 = zext i1 %1 to i8
  store i8 %15, ptr %5, align 1
  call void @llvm.lifetime.start.p0(i64 1, ptr %6) #10
  store i8 1, ptr %6, align 1
  %16 = load i8, ptr %5, align 1, !range !4, !noundef !5
  %17 = trunc i8 %16 to i1
  br i1 %17, label %18, label %81

18:                                               ; preds = %2
  call void @llvm.lifetime.start.p0(i64 8, ptr %7) #10
  %19 = load ptr, ptr %4, align 8
  %20 = call ptr @psql_scan_slash_option(ptr noundef %19, i32 noundef 1, ptr noundef null, i1 noundef zeroext true)
  store ptr %20, ptr %7, align 8
  call void @llvm.lifetime.start.p0(i64 8, ptr %8) #10
  store ptr null, ptr %8, align 8
  call void @llvm.lifetime.start.p0(i64 8, ptr %9) #10
  store ptr null, ptr %9, align 8
  call void @llvm.lifetime.start.p0(i64 24, ptr %10) #10
  call void @llvm.lifetime.start.p0(i64 24, ptr %11) #10
  %21 = load ptr, ptr %7, align 8
  %22 = icmp eq ptr %21, null
  br i1 %22, label %23, label %36

23:                                               ; preds = %18
  call void @llvm.lifetime.start.p0(i64 8, ptr %12) #10
  %24 = call ptr @PSQLexec(ptr noundef @.str.253)
  store ptr %24, ptr %12, align 8
  %25 = load ptr, ptr %12, align 8
  %26 = icmp ne ptr %25, null
  br i1 %26, label %28, label %27

27:                                               ; preds = %23
  store i32 5, ptr %3, align 4
  store i32 1, ptr %13, align 4
  br label %33

28:                                               ; preds = %23
  %29 = load ptr, ptr %12, align 8
  %30 = call ptr @PQgetvalue(ptr noundef %29, i32 noundef 0, i32 noundef 0)
  %31 = call ptr @pg_strdup(ptr noundef %30)
  store ptr %31, ptr %7, align 8
  %32 = load ptr, ptr %12, align 8
  call void @PQclear(ptr noundef %32)
  store i32 0, ptr %13, align 4
  br label %33

33:                                               ; preds = %28, %27
  call void @llvm.lifetime.end.p0(i64 8, ptr %12) #10
  %34 = load i32, ptr %13, align 4
  switch i32 %34, label %78 [
    i32 0, label %35
  ]

35:                                               ; preds = %33
  br label %36

36:                                               ; preds = %35, %18
  %37 = getelementptr inbounds nuw %struct.PromptInterruptContext, ptr %11, i32 0, i32 0
  store ptr @sigint_interrupt_jmp, ptr %37, align 8
  %38 = getelementptr inbounds nuw %struct.PromptInterruptContext, ptr %11, i32 0, i32 1
  store ptr @sigint_interrupt_enabled, ptr %38, align 8
  %39 = getelementptr inbounds nuw %struct.PromptInterruptContext, ptr %11, i32 0, i32 2
  store i8 0, ptr %39, align 8
  call void @initPQExpBuffer(ptr noundef %10)
  %40 = load ptr, ptr %7, align 8
  call void (ptr, ptr, ...) @printfPQExpBuffer(ptr noundef %10, ptr noundef @.str.254, ptr noundef %40)
  %41 = getelementptr inbounds nuw %struct.PQExpBufferData, ptr %10, i32 0, i32 0
  %42 = load ptr, ptr %41, align 8
  %43 = call ptr @simple_prompt_extended(ptr noundef %42, i1 noundef zeroext false, ptr noundef %11)
  store ptr %43, ptr %8, align 8
  %44 = getelementptr inbounds nuw %struct.PromptInterruptContext, ptr %11, i32 0, i32 2
  %45 = load i8, ptr %44, align 8, !range !4, !noundef !5
  %46 = trunc i8 %45 to i1
  br i1 %46, label %49, label %47

47:                                               ; preds = %36
  %48 = call ptr @simple_prompt_extended(ptr noundef @.str.255, i1 noundef zeroext false, ptr noundef %11)
  store ptr %48, ptr %9, align 8
  br label %49

49:                                               ; preds = %47, %36
  %50 = getelementptr inbounds nuw %struct.PromptInterruptContext, ptr %11, i32 0, i32 2
  %51 = load i8, ptr %50, align 8, !range !4, !noundef !5
  %52 = trunc i8 %51 to i1
  br i1 %52, label %53, label %54

53:                                               ; preds = %49
  store i8 0, ptr %6, align 1
  br label %74

54:                                               ; preds = %49
  %55 = load ptr, ptr %8, align 8
  %56 = load ptr, ptr %9, align 8
  %57 = call i32 @strcmp(ptr noundef %55, ptr noundef %56) #11
  %58 = icmp ne i32 %57, 0
  br i1 %58, label %59, label %60

59:                                               ; preds = %54
  call void (i32, i32, ptr, ...) @pg_log_generic(i32 noundef 4, i32 noundef 0, ptr noundef @.str.256)
  store i8 0, ptr %6, align 1
  br label %73

60:                                               ; preds = %54
  call void @llvm.lifetime.start.p0(i64 8, ptr %14) #10
  %61 = load ptr, ptr @pset, align 8
  %62 = load ptr, ptr %7, align 8
  %63 = load ptr, ptr %8, align 8
  %64 = call ptr @PQchangePassword(ptr noundef %61, ptr noundef %62, ptr noundef %63)
  store ptr %64, ptr %14, align 8
  %65 = load ptr, ptr %14, align 8
  %66 = call i32 @PQresultStatus(ptr noundef %65)
  %67 = icmp ne i32 %66, 1
  br i1 %67, label %68, label %71

68:                                               ; preds = %60
  %69 = load ptr, ptr @pset, align 8
  %70 = call ptr @PQerrorMessage(ptr noundef %69)
  call void (i32, i32, ptr, ...) @pg_log_generic(i32 noundef 2, i32 noundef 0, ptr noundef @.str.165, ptr noundef %70)
  store i8 0, ptr %6, align 1
  br label %71

71:                                               ; preds = %68, %60
  %72 = load ptr, ptr %14, align 8
  call void @PQclear(ptr noundef %72)
  call void @llvm.lifetime.end.p0(i64 8, ptr %14) #10
  br label %73

73:                                               ; preds = %71, %59
  br label %74

74:                                               ; preds = %73, %53
  %75 = load ptr, ptr %7, align 8
  call void @free(ptr noundef %75) #10
  %76 = load ptr, ptr %8, align 8
  call void @free(ptr noundef %76) #10
  %77 = load ptr, ptr %9, align 8
  call void @free(ptr noundef %77) #10
  call void @termPQExpBuffer(ptr noundef %10)
  store i32 0, ptr %13, align 4
  br label %78

78:                                               ; preds = %74, %33
  call void @llvm.lifetime.end.p0(i64 24, ptr %11) #10
  call void @llvm.lifetime.end.p0(i64 24, ptr %10) #10
  call void @llvm.lifetime.end.p0(i64 8, ptr %9) #10
  call void @llvm.lifetime.end.p0(i64 8, ptr %8) #10
  call void @llvm.lifetime.end.p0(i64 8, ptr %7) #10
  %79 = load i32, ptr %13, align 4
  switch i32 %79, label %87 [
    i32 0, label %80
  ]

80:                                               ; preds = %78
  br label %83

81:                                               ; preds = %2
  %82 = load ptr, ptr %4, align 8
  call void @ignore_slash_options(ptr noundef %82)
  br label %83

83:                                               ; preds = %81, %80
  %84 = load i8, ptr %6, align 1, !range !4, !noundef !5
  %85 = trunc i8 %84 to i1
  %86 = select i1 %85, i32 2, i32 5
  store i32 %86, ptr %3, align 4
  store i32 1, ptr %13, align 4
  br label %87

87:                                               ; preds = %83, %78
  call void @llvm.lifetime.end.p0(i64 1, ptr %6) #10
  %88 = load i32, ptr %3, align 4
  ret i32 %88
}