; Function Attrs: nounwind uwtable
define internal fastcc range(i32 2, 6) i32 @exec_command_password(ptr noundef %0, i1 noundef zeroext %1) unnamed_addr #0 {
  %3 = alloca %struct.PQExpBufferData, align 8
  %4 = alloca %struct.PromptInterruptContext, align 8
  br i1 %1, label %5, label %32

5:                                                ; preds = %2
  %6 = tail call ptr @psql_scan_slash_option(ptr noundef %0, i32 noundef 1, ptr noundef null, i1 noundef zeroext true) #16
  call void @llvm.lifetime.start.p0(i64 24, ptr nonnull %3) #16
  call void @llvm.lifetime.start.p0(i64 24, ptr nonnull %4) #16
  %7 = icmp eq ptr %6, null
  br i1 %7, label %8, label %13

8:                                                ; preds = %5
  %9 = tail call ptr @PSQLexec(ptr noundef nonnull @.str.253) #16
  %.not.not = icmp eq ptr %9, null
  br i1 %.not.not, label %ignore_slash_options.exit.thread.sink.split, label %10

10:                                               ; preds = %8
  %11 = tail call ptr @PQgetvalue(ptr noundef nonnull %9, i32 noundef 0, i32 noundef 0) #16
  %12 = tail call ptr @pg_strdup(ptr noundef %11) #16
  tail call void @PQclear(ptr noundef nonnull %9) #16
  br label %13

13:                                               ; preds = %10, %5
  %.028 = phi ptr [ %12, %10 ], [ %6, %5 ]
  store ptr @sigint_interrupt_jmp, ptr %4, align 8
  %14 = getelementptr inbounds nuw i8, ptr %4, i64 8
  store ptr @sigint_interrupt_enabled, ptr %14, align 8
  %15 = getelementptr inbounds nuw i8, ptr %4, i64 16
  store i8 0, ptr %15, align 8
  call void @initPQExpBuffer(ptr noundef nonnull %3) #16
  call void (ptr, ptr, ...) @printfPQExpBuffer(ptr noundef nonnull %3, ptr noundef nonnull @.str.254, ptr noundef %.028) #16
  %16 = load ptr, ptr %3, align 8
  %17 = call ptr @simple_prompt_extended(ptr noundef %16, i1 noundef zeroext false, ptr noundef nonnull %4) #16
  %18 = load i8, ptr %15, align 8, !range !4, !noundef !5
  %19 = trunc nuw i8 %18 to i1
  br i1 %19, label %ignore_slash_options.exit.thread.sink.split.sink.split, label %20

20:                                               ; preds = %13
  %21 = call ptr @simple_prompt_extended(ptr noundef nonnull @.str.255, i1 noundef zeroext false, ptr noundef nonnull %4) #16
  %.pre = load i8, ptr %15, align 8, !range !4
  %22 = trunc nuw i8 %.pre to i1
  br i1 %22, label %ignore_slash_options.exit.thread.sink.split.sink.split, label %23

23:                                               ; preds = %20
  %24 = call i32 @strcmp(ptr noundef nonnull dereferenceable(1) %17, ptr noundef nonnull dereferenceable(1) %21) #17
  %.not = icmp eq i32 %24, 0
  br i1 %.not, label %26, label %25

25:                                               ; preds = %23
  call void (i32, i32, ptr, ...) @pg_log_generic(i32 noundef 4, i32 noundef 0, ptr noundef nonnull @.str.256) #16
  br label %ignore_slash_options.exit.thread.sink.split.sink.split

26:                                               ; preds = %23
  %27 = load ptr, ptr @pset, align 8
  %28 = call ptr @PQchangePassword(ptr noundef %27, ptr noundef %.028, ptr noundef nonnull %17) #16
  %29 = call i32 @PQresultStatus(ptr noundef %28) #16
  %.not31 = icmp eq i32 %29, 1
  br i1 %.not31, label %ignore_slash_options.exit.thread.critedge, label %ignore_slash_options.exit

ignore_slash_options.exit:                        ; preds = %26
  %30 = load ptr, ptr @pset, align 8
  %31 = call ptr @PQerrorMessage(ptr noundef %30) #16
  call void (i32, i32, ptr, ...) @pg_log_generic(i32 noundef 2, i32 noundef 0, ptr noundef nonnull @.str.165, ptr noundef %31) #16
  call void @PQclear(ptr noundef %28) #16
  br label %ignore_slash_options.exit.thread.sink.split.sink.split

32:                                               ; preds = %2
  %33 = tail call ptr @psql_scan_slash_option(ptr noundef %0, i32 noundef 0, ptr noundef null, i1 noundef zeroext false) #16
  %.not2.i = icmp eq ptr %33, null
  br i1 %.not2.i, label %ignore_slash_options.exit.thread, label %.lr.ph.i

.lr.ph.i:                                         ; preds = %32, %.lr.ph.i
  %34 = phi ptr [ %35, %.lr.ph.i ], [ %33, %32 ]
  tail call void @free(ptr noundef nonnull %34) #16
  %35 = tail call ptr @psql_scan_slash_option(ptr noundef %0, i32 noundef 0, ptr noundef null, i1 noundef zeroext false) #16
  %.not.i = icmp eq ptr %35, null
  br i1 %.not.i, label %ignore_slash_options.exit.thread, label %.lr.ph.i, !llvm.loop !10

ignore_slash_options.exit.thread.critedge:        ; preds = %26
  call void @PQclear(ptr noundef %28) #16
  br label %ignore_slash_options.exit.thread.sink.split.sink.split

ignore_slash_options.exit.thread.sink.split.sink.split: ; preds = %25, %20, %13, %ignore_slash_options.exit.thread.critedge, %ignore_slash_options.exit
  %.02738.sink = phi ptr [ %21, %ignore_slash_options.exit ], [ %21, %ignore_slash_options.exit.thread.critedge ], [ %21, %20 ], [ %21, %25 ], [ null, %13 ]
  %.3.ph.ph = phi i32 [ 5, %ignore_slash_options.exit ], [ 2, %ignore_slash_options.exit.thread.critedge ], [ 5, %20 ], [ 5, %25 ], [ 5, %13 ]
  call void @free(ptr noundef %.028) #16
  call void @free(ptr noundef %17) #16
  call void @free(ptr noundef %.02738.sink) #16
  call void @termPQExpBuffer(ptr noundef nonnull %3) #16
  br label %ignore_slash_options.exit.thread.sink.split

ignore_slash_options.exit.thread.sink.split:      ; preds = %ignore_slash_options.exit.thread.sink.split.sink.split, %8
  %.3.ph = phi i32 [ 5, %8 ], [ %.3.ph.ph, %ignore_slash_options.exit.thread.sink.split.sink.split ]
  call void @llvm.lifetime.end.p0(i64 24, ptr nonnull %4) #16
  call void @llvm.lifetime.end.p0(i64 24, ptr nonnull %3) #16
  br label %ignore_slash_options.exit.thread

ignore_slash_options.exit.thread:                 ; preds = %.lr.ph.i, %ignore_slash_options.exit.thread.sink.split, %32
  %.3 = phi i32 [ 2, %32 ], [ %.3.ph, %ignore_slash_options.exit.thread.sink.split ], [ 2, %.lr.ph.i ]
  ret i32 %.3
}